target datalayout = "e-m:e-p270:32:32-p271:32:32-p272:64:64-i64:64-i128:128-f80:128-n8:16:32:64-S128"
target triple = "x86_64-pc-linux-gnu"

@.str = private unnamed_addr constant [10 x i8] c"cstr_term\00", align 1
@.str.1 = private unnamed_addr constant [12 x i8] c"cstr_unterm\00", align 1
@.str.2 = private unnamed_addr constant [15 x i8] c"cstr_term_char\00", align 1
@.str.3 = private unnamed_addr constant [23 x i8] c"unterminated_substring\00", align 1
@.str.4 = private unnamed_addr constant [13 x i8] c"cstr_noembed\00", align 1
@.str.5 = private unnamed_addr constant [15 x i8] c"cstr_embedded?\00", align 1
@.str.6 = private unnamed_addr constant [18 x i8] c"rb_str_new_frozen\00", align 1

; Function Attrs: nounwind sspstrong uwtable
define void @Init_string_cstr(i64 noundef %0) #0 {
  %2 = alloca i64, align 8
  store i64 %0, ptr %2, align 8, !tbaa !6
  %3 = load i64, ptr %2, align 8, !tbaa !6
  call void @rb_define_method(i64 noundef %3, ptr noundef @.str, ptr noundef @bug_str_cstr_term, i32 noundef 0)
  %4 = load i64, ptr %2, align 8, !tbaa !6
  call void @rb_define_method(i64 noundef %4, ptr noundef @.str.1, ptr noundef @bug_str_cstr_unterm, i32 noundef 1)
  %5 = load i64, ptr %2, align 8, !tbaa !6
  call void @rb_define_method(i64 noundef %5, ptr noundef @.str.2, ptr noundef @bug_str_cstr_term_char, i32 noundef 0)
  %6 = load i64, ptr %2, align 8, !tbaa !6
  call void @rb_define_method(i64 noundef %6, ptr noundef @.str.3, ptr noundef @bug_str_unterminated_substring, i32 noundef 2)
  %7 = load i64, ptr %2, align 8, !tbaa !6
  call void @rb_define_singleton_method(i64 noundef %7, ptr noundef @.str, ptr noundef @bug_str_s_cstr_term, i32 noundef 1)
  %8 = load i64, ptr %2, align 8, !tbaa !6
  call void @rb_define_singleton_method(i64 noundef %8, ptr noundef @.str.1, ptr noundef @bug_str_s_cstr_unterm, i32 noundef 2)
  %9 = load i64, ptr %2, align 8, !tbaa !6
  call void @rb_define_singleton_method(i64 noundef %9, ptr noundef @.str.2, ptr noundef @bug_str_s_cstr_term_char, i32 noundef 1)
  %10 = load i64, ptr %2, align 8, !tbaa !6
  call void @rb_define_singleton_method(i64 noundef %10, ptr noundef @.str.4, ptr noundef @bug_str_s_cstr_noembed, i32 noundef 1)
  %11 = load i64, ptr %2, align 8, !tbaa !6
  call void @rb_define_singleton_method(i64 noundef %11, ptr noundef @.str.5, ptr noundef @bug_str_s_cstr_embedded_p, i32 noundef 1)
  %12 = load i64, ptr %2, align 8, !tbaa !6
  call void @rb_define_singleton_method(i64 noundef %12, ptr noundef @.str.6, ptr noundef @bug_str_s_rb_str_new_frozen, i32 noundef 1)
  ret void
}