; Function Attrs: nounwind sspstrong uwtable
define void @Init_string_cstr(i64 noundef %0) local_unnamed_addr #0 {
  tail call void @rb_define_method(i64 noundef %0, ptr noundef nonnull @.str, ptr noundef nonnull @bug_str_cstr_term, i32 noundef 0) #9
  tail call void @rb_define_method(i64 noundef %0, ptr noundef nonnull @.str.1, ptr noundef nonnull @bug_str_cstr_unterm, i32 noundef 1) #9
  tail call void @rb_define_method(i64 noundef %0, ptr noundef nonnull @.str.2, ptr noundef nonnull @bug_str_cstr_term_char, i32 noundef 0) #9
  tail call void @rb_define_method(i64 noundef %0, ptr noundef nonnull @.str.3, ptr noundef nonnull @bug_str_unterminated_substring, i32 noundef 2) #9
  tail call void @rb_define_singleton_method(i64 noundef %0, ptr noundef nonnull @.str, ptr noundef nonnull @bug_str_s_cstr_term, i32 noundef 1) #9
  tail call void @rb_define_singleton_method(i64 noundef %0, ptr noundef nonnull @.str.1, ptr noundef nonnull @bug_str_s_cstr_unterm, i32 noundef 2) #9
  tail call void @rb_define_singleton_method(i64 noundef %0, ptr noundef nonnull @.str.2, ptr noundef nonnull @bug_str_s_cstr_term_char, i32 noundef 1) #9
  tail call void @rb_define_singleton_method(i64 noundef %0, ptr noundef nonnull @.str.4, ptr noundef nonnull @bug_str_s_cstr_noembed, i32 noundef 1) #9
  tail call void @rb_define_singleton_method(i64 noundef %0, ptr noundef nonnull @.str.5, ptr noundef nonnull @bug_str_s_cstr_embedded_p, i32 noundef 1) #9
  tail call void @rb_define_singleton_method(i64 noundef %0, ptr noundef nonnull @.str.6, ptr noundef nonnull @bug_str_s_rb_str_new_frozen, i32 noundef 1) #9
  ret void
}